target datalayout = "e-m:e-p270:32:32-p271:32:32-p272:64:64-i64:64-i128:128-f80:128-n8:16:32:64-S128"
target triple = "x86_64-pc-linux-gnu"

; Function Attrs: nounwind uwtable
define internal i32 @tng_compress_uncompress_vel_int(ptr noundef %0, ptr noundef %1, ptr noundef %2, ptr noundef %3) #0 {
  %5 = alloca ptr, align 8
  %6 = alloca ptr, align 8
  %7 = alloca ptr, align 8
  %8 = alloca ptr, align 8
  store ptr %0, ptr %5, align 8, !tbaa !12
  store ptr %1, ptr %6, align 8, !tbaa !3
  store ptr %2, ptr %7, align 8, !tbaa !42
  store ptr %3, ptr %8, align 8, !tbaa !42
  %9 = load ptr, ptr %5, align 8, !tbaa !12
  %10 = load ptr, ptr %6, align 8, !tbaa !3
  %11 = load ptr, ptr %7, align 8, !tbaa !42
  %12 = load ptr, ptr %8, align 8, !tbaa !42
  %13 = call i32 @tng_compress_uncompress_vel_gen(ptr noundef %9, ptr noundef null, ptr noundef null, ptr noundef %10, ptr noundef %11, ptr noundef %12)
  ret i32 %13
}

; Function Attrs: nounwind uwtable
define internal i32 @tng_compress_uncompress_pos_int(ptr noundef %0, ptr noundef %1, ptr noundef %2, ptr noundef %3) #0 {
  %5 = alloca ptr, align 8
  %6 = alloca ptr, align 8
  %7 = alloca ptr, align 8
  %8 = alloca ptr, align 8
  store ptr %0, ptr %5, align 8, !tbaa !12
  store ptr %1, ptr %6, align 8, !tbaa !3
  store ptr %2, ptr %7, align 8, !tbaa !42
  store ptr %3, ptr %8, align 8, !tbaa !42
  %9 = load ptr, ptr %5, align 8, !tbaa !12
  %10 = load ptr, ptr %6, align 8, !tbaa !3
  %11 = load ptr, ptr %7, align 8, !tbaa !42
  %12 = load ptr, ptr %8, align 8, !tbaa !42
  %13 = call i32 @tng_compress_uncompress_pos_gen(ptr noundef %9, ptr noundef null, ptr noundef null, ptr noundef %10, ptr noundef %11, ptr noundef %12)
  ret i32 %13
}

; Function Attrs: nounwind uwtable
define internal i64 @readbufferfix(ptr noundef %0, i32 noundef %1) #0 {
  %3 = alloca ptr, align 8
  %4 = alloca i32, align 4
  %5 = alloca i8, align 1
  %6 = alloca i32, align 4
  %7 = alloca i64, align 8
  %8 = alloca i32, align 4
  store ptr %0, ptr %3, align 8, !tbaa !12
  store i32 %1, ptr %4, align 4, !tbaa !8
  call void @llvm.lifetime.start.p0(i64 1, ptr %5) #7
  call void @llvm.lifetime.start.p0(i64 4, ptr %6) #7
  store i32 0, ptr %6, align 4, !tbaa !8
  call void @llvm.lifetime.start.p0(i64 8, ptr %7) #7
  store i64 0, ptr %7, align 8, !tbaa !10
  call void @llvm.lifetime.start.p0(i64 4, ptr %8) #7
  store i32 0, ptr %8, align 4, !tbaa !8
  br label %9

9:                                                ; preds = %26, %2
  %10 = load ptr, ptr %3, align 8, !tbaa !12
  %11 = load i32, ptr %8, align 4, !tbaa !8
  %12 = add nsw i32 %11, 1
  store i32 %12, ptr %8, align 4, !tbaa !8
  %13 = sext i32 %11 to i64
  %14 = getelementptr inbounds i8, ptr %10, i64 %13
  %15 = load i8, ptr %14, align 1, !tbaa !40
  store i8 %15, ptr %5, align 1, !tbaa !40
  %16 = load i8, ptr %5, align 1, !tbaa !40
  %17 = zext i8 %16 to i64
  %18 = and i64 %17, 255
  %19 = load i32, ptr %6, align 4, !tbaa !8
  %20 = zext i32 %19 to i64
  %21 = shl i64 %18, %20
  %22 = load i64, ptr %7, align 8, !tbaa !10
  %23 = or i64 %22, %21
  store i64 %23, ptr %7, align 8, !tbaa !10
  %24 = load i32, ptr %6, align 4, !tbaa !8
  %25 = add nsw i32 %24, 8
  store i32 %25, ptr %6, align 4, !tbaa !8
  br label %26

26:                                               ; preds = %9
  %27 = load i32, ptr %4, align 4, !tbaa !8
  %28 = add nsw i32 %27, -1
  store i32 %28, ptr %4, align 4, !tbaa !8
  %29 = icmp ne i32 %28, 0
  br i1 %29, label %9, label %30, !llvm.loop !41

30:                                               ; preds = %26
  %31 = load i64, ptr %7, align 8, !tbaa !10
  call void @llvm.lifetime.end.p0(i64 4, ptr %8) #7
  call void @llvm.lifetime.end.p0(i64 8, ptr %7) #7
  call void @llvm.lifetime.end.p0(i64 4, ptr %6) #7
  call void @llvm.lifetime.end.p0(i64 1, ptr %5) #7
  ret i64 %31
}

; Function Attrs: nounwind uwtable
define i32 @tng_compress_uncompress_int(ptr noundef %0, ptr noundef %1, ptr noundef %2, ptr noundef %3) #0 {
  %5 = alloca i32, align 4
  %6 = alloca ptr, align 8
  %7 = alloca ptr, align 8
  %8 = alloca ptr, align 8
  %9 = alloca ptr, align 8
  %10 = alloca i32, align 4
  %11 = alloca i32, align 4
  store ptr %0, ptr %6, align 8, !tbaa !12
  store ptr %1, ptr %7, align 8, !tbaa !3
  store ptr %2, ptr %8, align 8, !tbaa !42
  store ptr %3, ptr %9, align 8, !tbaa !42
  call void @llvm.lifetime.start.p0(i64 4, ptr %10) #7
  %12 = load ptr, ptr %6, align 8, !tbaa !12
  %13 = call i64 @readbufferfix(ptr noundef %12, i32 noundef 4)
  %14 = trunc i64 %13 to i32
  store i32 %14, ptr %10, align 4, !tbaa !8
  %15 = load i32, ptr %10, align 4, !tbaa !8
  %16 = icmp eq i32 %15, 1346850388
  br i1 %16, label %17, label %23

17:                                               ; preds = %4
  %18 = load ptr, ptr %6, align 8, !tbaa !12
  %19 = load ptr, ptr %7, align 8, !tbaa !3
  %20 = load ptr, ptr %8, align 8, !tbaa !42
  %21 = load ptr, ptr %9, align 8, !tbaa !42
  %22 = call i32 @tng_compress_uncompress_pos_int(ptr noundef %18, ptr noundef %19, ptr noundef %20, ptr noundef %21)
  store i32 %22, ptr %5, align 4
  store i32 1, ptr %11, align 4
  br label %33

23:                                               ; preds = %4
  %24 = load i32, ptr %10, align 4, !tbaa !8
  %25 = icmp eq i32 %24, 1447513684
  br i1 %25, label %26, label %32

26:                                               ; preds = %23
  %27 = load ptr, ptr %6, align 8, !tbaa !12
  %28 = load ptr, ptr %7, align 8, !tbaa !3
  %29 = load ptr, ptr %8, align 8, !tbaa !42
  %30 = load ptr, ptr %9, align 8, !tbaa !42
  %31 = call i32 @tng_compress_uncompress_vel_int(ptr noundef %27, ptr noundef %28, ptr noundef %29, ptr noundef %30)
  store i32 %31, ptr %5, align 4
  store i32 1, ptr %11, align 4
  br label %33

32:                                               ; preds = %23
  store i32 1, ptr %5, align 4
  store i32 1, ptr %11, align 4
  br label %33

33:                                               ; preds = %32, %26, %17
  call void @llvm.lifetime.end.p0(i64 4, ptr %10) #7
  %34 = load i32, ptr %5, align 4
  ret i32 %34
}