; Function Attrs: nounwind uwtable
define i32 @tng_compress_uncompress_int(ptr noundef %0, ptr noundef %1, ptr noundef captures(none) %2, ptr noundef captures(none) %3) local_unnamed_addr #0 {
  br label %5

5:                                                ; preds = %5, %4
  %indvars.iv10.i = phi i64 [ %indvars.iv.next11.i, %5 ], [ 0, %4 ]
  %indvars.iv.i = phi i64 [ %indvars.iv.next.i, %5 ], [ 0, %4 ]
  %.09.i = phi i32 [ %11, %5 ], [ 4, %4 ]
  %.07.i = phi i64 [ %10, %5 ], [ 0, %4 ]
  %indvars.iv.next11.i = add nuw nsw i64 %indvars.iv10.i, 1
  %6 = getelementptr inbounds nuw i8, ptr %0, i64 %indvars.iv10.i
  %7 = load i8, ptr %6, align 1, !tbaa !16
  %8 = zext i8 %7 to i64
  %9 = shl i64 %8, %indvars.iv.i
  %10 = or i64 %9, %.07.i
  %indvars.iv.next.i = add nuw nsw i64 %indvars.iv.i, 8
  %11 = add nsw i32 %.09.i, -1
  %.not.i = icmp eq i32 %11, 0
  br i1 %.not.i, label %readbufferfix.exit, label %5, !llvm.loop !36

readbufferfix.exit:                               ; preds = %5
  %12 = trunc i64 %10 to i32
  switch i32 %12, label %17 [
    i32 1346850388, label %13
    i32 1447513684, label %15
  ]

13:                                               ; preds = %readbufferfix.exit
  %14 = tail call fastcc i32 @tng_compress_uncompress_pos_gen(ptr noundef nonnull %0, ptr noundef null, ptr noundef null, ptr noundef %1, ptr noundef %2, ptr noundef %3)
  br label %17

15:                                               ; preds = %readbufferfix.exit
  %16 = tail call fastcc i32 @tng_compress_uncompress_vel_gen(ptr noundef nonnull %0, ptr noundef null, ptr noundef null, ptr noundef %1, ptr noundef %2, ptr noundef %3)
  br label %17

17:                                               ; preds = %readbufferfix.exit, %15, %13
  %.0 = phi i32 [ %14, %13 ], [ %16, %15 ], [ 1, %readbufferfix.exit ]
  ret i32 %.0
}